; Function Attrs: mustprogress uwtable
define void @_ZN21grpc_alts_credentials25create_security_connectorEN9grpc_core13RefCountedPtrI21grpc_call_credentialsEEPKcPNS0_11ChannelArgsE(ptr noalias sret(%"class.grpc_core::RefCountedPtr") align 8 %agg.result, ptr noundef nonnull align 8 dereferenceable(32) %this, ptr nocapture noundef %call_creds, ptr noundef %target_name, ptr nocapture readnone %0) unnamed_addr #3 align 2 personality ptr @__gxx_personality_v0 {
entry:
  %agg.tmp = alloca %"class.grpc_core::RefCountedPtr.1", align 8
  %agg.tmp2 = alloca %"class.grpc_core::RefCountedPtr.0", align 8
  tail call void @llvm.experimental.noalias.scope.decl(metadata !4)
  %refs_.i.i = getelementptr inbounds i8, ptr %this, i64 8
  %1 = atomicrmw add ptr %refs_.i.i, i64 1 monotonic, align 8, !noalias !4
  store ptr %this, ptr %agg.tmp, align 8, !alias.scope !4
  %2 = load ptr, ptr %call_creds, align 8
  store ptr %2, ptr %agg.tmp2, align 8
  store ptr null, ptr %call_creds, align 8
  invoke void @_Z43grpc_alts_channel_security_connector_createN9grpc_core13RefCountedPtrI24grpc_channel_credentialsEENS0_I21grpc_call_credentialsEEPKc(ptr sret(%"class.grpc_core::RefCountedPtr") align 8 %agg.result, ptr noundef nonnull %agg.tmp, ptr noundef nonnull %agg.tmp2, ptr noundef %target_name)
          to label %invoke.cont unwind label %lpad

invoke.cont:                                      ; preds = %entry
  %3 = load ptr, ptr %agg.tmp2, align 8
  %cmp.not.i = icmp eq ptr %3, null
  br i1 %cmp.not.i, label %_ZN9grpc_core13RefCountedPtrI21grpc_call_credentialsED2Ev.exit, label %if.then.i

if.then.i:                                        ; preds = %invoke.cont
  %refs_.i.i1 = getelementptr inbounds i8, ptr %3, i64 8
  %4 = atomicrmw sub ptr %refs_.i.i1, i64 1 acq_rel, align 8
  %cmp.i.i.i = icmp eq i64 %4, 1
  br i1 %cmp.i.i.i, label %if.then.i.i, label %_ZN9grpc_core13RefCountedPtrI21grpc_call_credentialsED2Ev.exit

if.then.i.i:                                      ; preds = %if.then.i
  %vtable.i.i.i = load ptr, ptr %3, align 8
  %vfn.i.i.i = getelementptr inbounds i8, ptr %vtable.i.i.i, i64 8
  %5 = load ptr, ptr %vfn.i.i.i, align 8
  call void %5(ptr noundef nonnull align 8 dereferenceable(20) %3) #15
  br label %_ZN9grpc_core13RefCountedPtrI21grpc_call_credentialsED2Ev.exit

_ZN9grpc_core13RefCountedPtrI21grpc_call_credentialsED2Ev.exit: ; preds = %invoke.cont, %if.then.i, %if.then.i.i
  %6 = load ptr, ptr %agg.tmp, align 8
  %cmp.not.i2 = icmp eq ptr %6, null
  br i1 %cmp.not.i2, label %_ZN9grpc_core13RefCountedPtrI24grpc_channel_credentialsED2Ev.exit, label %if.then.i3

if.then.i3:                                       ; preds = %_ZN9grpc_core13RefCountedPtrI21grpc_call_credentialsED2Ev.exit
  %refs_.i.i4 = getelementptr inbounds i8, ptr %6, i64 8
  %7 = atomicrmw sub ptr %refs_.i.i4, i64 1 acq_rel, align 8
  %cmp.i.i.i5 = icmp eq i64 %7, 1
  br i1 %cmp.i.i.i5, label %if.then.i.i6, label %_ZN9grpc_core13RefCountedPtrI24grpc_channel_credentialsED2Ev.exit

if.then.i.i6:                                     ; preds = %if.then.i3
  %vtable.i.i.i7 = load ptr, ptr %6, align 8
  %vfn.i.i.i8 = getelementptr inbounds i8, ptr %vtable.i.i.i7, i64 8
  %8 = load ptr, ptr %vfn.i.i.i8, align 8
  call void %8(ptr noundef nonnull align 8 dereferenceable(16) %6) #15
  br label %_ZN9grpc_core13RefCountedPtrI24grpc_channel_credentialsED2Ev.exit

_ZN9grpc_core13RefCountedPtrI24grpc_channel_credentialsED2Ev.exit: ; preds = %_ZN9grpc_core13RefCountedPtrI21grpc_call_credentialsED2Ev.exit, %if.then.i3, %if.then.i.i6
  ret void

lpad:                                             ; preds = %entry
  %9 = landingpad { ptr, i32 }
          cleanup
  %10 = load ptr, ptr %agg.tmp2, align 8
  %cmp.not.i9 = icmp eq ptr %10, null
  br i1 %cmp.not.i9, label %_ZN9grpc_core13RefCountedPtrI21grpc_call_credentialsED2Ev.exit16, label %if.then.i10

if.then.i10:                                      ; preds = %lpad
  %refs_.i.i11 = getelementptr inbounds i8, ptr %10, i64 8
  %11 = atomicrmw sub ptr %refs_.i.i11, i64 1 acq_rel, align 8
  %cmp.i.i.i12 = icmp eq i64 %11, 1
  br i1 %cmp.i.i.i12, label %if.then.i.i13, label %_ZN9grpc_core13RefCountedPtrI21grpc_call_credentialsED2Ev.exit16

if.then.i.i13:                                    ; preds = %if.then.i10
  %vtable.i.i.i14 = load ptr, ptr %10, align 8
  %vfn.i.i.i15 = getelementptr inbounds i8, ptr %vtable.i.i.i14, i64 8
  %12 = load ptr, ptr %vfn.i.i.i15, align 8
  call void %12(ptr noundef nonnull align 8 dereferenceable(20) %10) #15
  br label %_ZN9grpc_core13RefCountedPtrI21grpc_call_credentialsED2Ev.exit16

_ZN9grpc_core13RefCountedPtrI21grpc_call_credentialsED2Ev.exit16: ; preds = %lpad, %if.then.i10, %if.then.i.i13
  %13 = load ptr, ptr %agg.tmp, align 8
  %cmp.not.i17 = icmp eq ptr %13, null
  br i1 %cmp.not.i17, label %_ZN9grpc_core13RefCountedPtrI24grpc_channel_credentialsED2Ev.exit24, label %if.then.i18

if.then.i18:                                      ; preds = %_ZN9grpc_core13RefCountedPtrI21grpc_call_credentialsED2Ev.exit16
  %refs_.i.i19 = getelementptr inbounds i8, ptr %13, i64 8
  %14 = atomicrmw sub ptr %refs_.i.i19, i64 1 acq_rel, align 8
  %cmp.i.i.i20 = icmp eq i64 %14, 1
  br i1 %cmp.i.i.i20, label %if.then.i.i21, label %_ZN9grpc_core13RefCountedPtrI24grpc_channel_credentialsED2Ev.exit24

if.then.i.i21:                                    ; preds = %if.then.i18
  %vtable.i.i.i22 = load ptr, ptr %13, align 8
  %vfn.i.i.i23 = getelementptr inbounds i8, ptr %vtable.i.i.i22, i64 8
  %15 = load ptr, ptr %vfn.i.i.i23, align 8
  call void %15(ptr noundef nonnull align 8 dereferenceable(16) %13) #15
  br label %_ZN9grpc_core13RefCountedPtrI24grpc_channel_credentialsED2Ev.exit24

_ZN9grpc_core13RefCountedPtrI24grpc_channel_credentialsED2Ev.exit24: ; preds = %_ZN9grpc_core13RefCountedPtrI21grpc_call_credentialsED2Ev.exit16, %if.then.i18, %if.then.i.i21
  resume { ptr, i32 } %9
}